; Function Attrs: nounwind uwtable
define internal fastcc void @add_path(ptr noundef nonnull %0, i64 noundef %1, ptr noundef %2) unnamed_addr #0 {
  %4 = load i64, ptr %0, align 8, !tbaa !47
  %spec.select.i = tail call i64 @llvm.usub.sat.i64(i64 %4, i64 1)
  %5 = icmp ugt i64 %1, %spec.select.i
  br i1 %5, label %6, label %7

6:                                                ; preds = %3
  tail call void (ptr, i32, ptr, ...) @BUG_fl(ptr noundef nonnull @.str.78, i32 noundef 167, ptr noundef nonnull @.str.79) #19
  unreachable

7:                                                ; preds = %3
  %8 = getelementptr inbounds nuw i8, ptr %0, i64 8
  store i64 %1, ptr %8, align 8, !tbaa !46
  %9 = getelementptr inbounds nuw i8, ptr %0, i64 16
  %10 = load ptr, ptr %9, align 8, !tbaa !44
  %.not9.i = icmp eq ptr %10, @strbuf_slopbuf
  br i1 %.not9.i, label %strbuf_setlen.exit, label %11

11:                                               ; preds = %7
  %12 = getelementptr inbounds nuw i8, ptr %10, i64 %1
  store i8 0, ptr %12, align 1, !tbaa !28
  %.pr = load i64, ptr %8, align 8, !tbaa !46
  br label %strbuf_setlen.exit

strbuf_setlen.exit:                               ; preds = %7, %11
  %13 = phi i64 [ %1, %7 ], [ %.pr, %11 ]
  %.not = icmp eq i64 %13, 0
  br i1 %.not, label %27, label %14

14:                                               ; preds = %strbuf_setlen.exit
  %15 = load ptr, ptr %9, align 8, !tbaa !44
  %16 = getelementptr i8, ptr %15, i64 %13
  %17 = getelementptr i8, ptr %16, i64 -1
  %18 = load i8, ptr %17, align 1, !tbaa !28
  %.not7 = icmp eq i8 %18, 47
  br i1 %.not7, label %27, label %19

19:                                               ; preds = %14
  %20 = load i64, ptr %0, align 8, !tbaa !47
  %.not.i.i = icmp eq i64 %20, 0
  %.neg.i = add i64 %13, 1
  %.not.i = icmp eq i64 %20, %.neg.i
  %or.cond = or i1 %.not.i.i, %.not.i
  br i1 %or.cond, label %strbuf_avail.exit.thread.i, label %strbuf_addch.exit

strbuf_avail.exit.thread.i:                       ; preds = %19
  tail call void @strbuf_grow(ptr noundef nonnull %0, i64 noundef 1) #18
  %.pre.i = load i64, ptr %8, align 8, !tbaa !46
  %.pre7.i = add i64 %.pre.i, 1
  %.pre = load ptr, ptr %9, align 8, !tbaa !44
  br label %strbuf_addch.exit

strbuf_addch.exit:                                ; preds = %19, %strbuf_avail.exit.thread.i
  %21 = phi ptr [ %.pre, %strbuf_avail.exit.thread.i ], [ %15, %19 ]
  %.pre-phi.i = phi i64 [ %.pre7.i, %strbuf_avail.exit.thread.i ], [ %.neg.i, %19 ]
  %22 = phi i64 [ %.pre.i, %strbuf_avail.exit.thread.i ], [ %13, %19 ]
  store i64 %.pre-phi.i, ptr %8, align 8, !tbaa !46
  %23 = getelementptr inbounds nuw i8, ptr %21, i64 %22
  store i8 47, ptr %23, align 1, !tbaa !28
  %24 = load ptr, ptr %9, align 8, !tbaa !44
  %25 = load i64, ptr %8, align 8, !tbaa !46
  %26 = getelementptr inbounds nuw i8, ptr %24, i64 %25
  store i8 0, ptr %26, align 1, !tbaa !28
  br label %27

27:                                               ; preds = %strbuf_addch.exit, %14, %strbuf_setlen.exit
  %28 = tail call i64 @strlen(ptr noundef nonnull dereferenceable(1) %2) #20
  tail call void @strbuf_add(ptr noundef nonnull %0, ptr noundef nonnull %2, i64 noundef %28) #18
  ret void
}